; Function Attrs: mustprogress nofree norecurse nosync nounwind willreturn memory(read, inaccessiblemem: none) uwtable
define dso_local noundef ptr @_ZNK4llvm15X86RegisterInfo25getCalleeSavedRegsViaCopyEPKNS_15MachineFunctionE(ptr noundef nonnull readnone align 8 captures(none) dereferenceable(328) %0, ptr noundef readonly captures(none) %1) local_unnamed_addr #0 align 2 {
  %3 = load ptr, ptr %1, align 8
  %4 = getelementptr inbounds nuw i8, ptr %3, i64 2
  %5 = load i16, ptr %4, align 2
  %6 = and i16 %5, 16368
  %7 = icmp eq i16 %6, 272
  br i1 %7, label %8, label %14

8:                                                ; preds = %2
  %9 = getelementptr inbounds nuw i8, ptr %1, i64 40
  %10 = load ptr, ptr %9, align 8
  %11 = getelementptr inbounds nuw i8, ptr %10, i64 104
  %12 = load i8, ptr %11, align 8
  %13 = trunc i8 %12 to i1
  br i1 %13, label %15, label %14

14:                                               ; preds = %8, %2
  br label %15

15:                                               ; preds = %8, %14
  %.0 = phi ptr [ null, %14 ], [ @_ZN4llvmL38CSR_64_CXX_TLS_Darwin_ViaCopy_SaveListE, %8 ]
  ret ptr %.0
}